target datalayout = "e-m:e-p270:32:32-p271:32:32-p272:64:64-i64:64-i128:128-f80:128-n8:16:32:64-S128"
target triple = "x86_64-unknown-linux-gnu"

%"class.std::function.17" = type { %"class.std::_Function_base", ptr }
%"class.std::_Function_base" = type { %"union.std::_Any_data", ptr }
%"union.std::_Any_data" = type { %"union.std::_Nocopy_types" }
%"union.std::_Nocopy_types" = type { { i64, i64 } }
%"class.hermes::vm::GCBase" = type <{ ptr, i32, [4 x i8], i64, %"class.hermes::vm::GCExecTrace", [7 x i8], ptr, ptr, %"class.std::shared_ptr", i32, [4 x i8], %"class.std::function", %"class.std::vector", i8, i8, i8, i8, [4 x i8], %"class.std::chrono::time_point", %"class.std::chrono::duration.0", i64, i64, %"struct.hermes::vm::GCBase::CumulativeHeapStats", %"class.std::__cxx11::basic_string", %"class.std::deque", ptr, %"class.std::recursive_mutex", %"class.hermes::vm::GCBase::IDTracker", [3 x i64], %"class.std::function.17", i32, i8, [3 x i8] }>
%"class.hermes::vm::GCExecTrace" = type { i8 }
%"class.std::shared_ptr" = type { %"class.std::__shared_ptr" }
%"class.std::__shared_ptr" = type { ptr, %"class.std::__shared_count" }
%"class.std::__shared_count" = type { ptr }
%"class.std::function" = type { %"class.std::_Function_base", ptr }
%"class.std::vector" = type { %"struct.std::_Vector_base" }
%"struct.std::_Vector_base" = type { %"struct.std::_Vector_base<hermes::vm::GCAnalyticsEvent, std::allocator<hermes::vm::GCAnalyticsEvent>>::_Vector_impl" }
%"struct.std::_Vector_base<hermes::vm::GCAnalyticsEvent, std::allocator<hermes::vm::GCAnalyticsEvent>>::_Vector_impl" = type { %"struct.std::_Vector_base<hermes::vm::GCAnalyticsEvent, std::allocator<hermes::vm::GCAnalyticsEvent>>::_Vector_impl_data" }
%"struct.std::_Vector_base<hermes::vm::GCAnalyticsEvent, std::allocator<hermes::vm::GCAnalyticsEvent>>::_Vector_impl_data" = type { ptr, ptr, ptr }
%"class.std::chrono::time_point" = type { %"class.std::chrono::duration" }
%"class.std::chrono::duration" = type { i64 }
%"class.std::chrono::duration.0" = type { i64 }
%"struct.hermes::vm::GCBase::CumulativeHeapStats" = type { i32, %"class.hermes::StatsAccumulator", %"class.hermes::StatsAccumulator", i32, %"class.hermes::StatsAccumulator.1", %"class.hermes::StatsAccumulator.1" }
%"class.hermes::StatsAccumulator" = type { i32, double, double, double, double }
%"class.hermes::StatsAccumulator.1" = type { i32, i64, i32, i32, double }
%"class.std::__cxx11::basic_string" = type { %"struct.std::__cxx11::basic_string<char>::_Alloc_hider", i64, %union.anon }
%"struct.std::__cxx11::basic_string<char>::_Alloc_hider" = type { ptr }
%union.anon = type { i64, [8 x i8] }
%"class.std::deque" = type { %"class.std::_Deque_base" }
%"class.std::_Deque_base" = type { %"struct.std::_Deque_base<hermes::vm::WeakRefSlot, std::allocator<hermes::vm::WeakRefSlot>>::_Deque_impl" }
%"struct.std::_Deque_base<hermes::vm::WeakRefSlot, std::allocator<hermes::vm::WeakRefSlot>>::_Deque_impl" = type { %"struct.std::_Deque_base<hermes::vm::WeakRefSlot, std::allocator<hermes::vm::WeakRefSlot>>::_Deque_impl_data" }
%"struct.std::_Deque_base<hermes::vm::WeakRefSlot, std::allocator<hermes::vm::WeakRefSlot>>::_Deque_impl_data" = type { ptr, i64, %"struct.std::_Deque_iterator", %"struct.std::_Deque_iterator" }
%"struct.std::_Deque_iterator" = type { ptr, ptr, ptr, ptr }
%"class.std::recursive_mutex" = type { %"class.std::__recursive_mutex_base" }
%"class.std::__recursive_mutex_base" = type { %union.pthread_mutex_t }
%union.pthread_mutex_t = type { %struct.__pthread_mutex_s }
%struct.__pthread_mutex_s = type { i32, i32, i32, i32, i32, i16, i16, %struct.__pthread_internal_list }
%struct.__pthread_internal_list = type { ptr, ptr }
%"class.hermes::vm::GCBase::IDTracker" = type { %"class.std::recursive_mutex", i32, [4 x i8], %"class.llvh::DenseMap", %"class.llvh::DenseMap", %"class.llvh::DenseMap.8", %"class.llvh::DenseMap.11", %"class.llvh::DenseMap", %"class.llvh::DenseMap.14" }
%"class.llvh::DenseMap.8" = type <{ ptr, i32, i32, i32, [4 x i8] }>
%"class.llvh::DenseMap.11" = type <{ ptr, i32, i32, i32, [4 x i8] }>
%"class.llvh::DenseMap" = type <{ ptr, i32, i32, i32, [4 x i8] }>
%"class.llvh::DenseMap.14" = type <{ ptr, i32, i32, i32, [4 x i8] }>
%"struct.hermes::vm::GCBase::HeapInfo" = type { i32, i64, i64, i64, i32, i64, i64, i32, %"struct.hermes::vm::GCBase::CumulativeHeapStats", %"struct.hermes::vm::GCBase::CumulativeHeapStats" }

; Function Attrs: mustprogress nounwind uwtable
define linkonce_odr noundef i64 @_ZSt16__deque_buf_sizem(i64 noundef %__size) #0 comdat {
entry:
  %__size.addr = alloca i64, align 8
  store i64 %__size, ptr %__size.addr, align 8
  %0 = load i64, ptr %__size.addr, align 8
  %cmp = icmp ult i64 %0, 512
  br i1 %cmp, label %cond.true, label %cond.false

cond.true:                                        ; preds = %entry
  %1 = load i64, ptr %__size.addr, align 8
  %div = udiv i64 512, %1
  br label %cond.end

cond.false:                                       ; preds = %entry
  br label %cond.end

cond.end:                                         ; preds = %cond.false, %cond.true
  %cond = phi i64 [ %div, %cond.true ], [ 1, %cond.false ]
  ret i64 %cond
}

; Function Attrs: mustprogress nounwind uwtable
define linkonce_odr hidden noundef i64 @_ZNSt15_Deque_iteratorIN6hermes2vm11WeakRefSlotERS2_PS2_E14_S_buffer_sizeEv() #0 comdat align 2 {
entry:
  %call = call noundef i64 @_ZSt16__deque_buf_sizem(i64 noundef 16)
  ret i64 %call
}

; Function Attrs: mustprogress nounwind uwtable
define linkonce_odr noundef i64 @_ZStmiRKSt15_Deque_iteratorIN6hermes2vm11WeakRefSlotERS2_PS2_ES7_(ptr noundef nonnull align 8 dereferenceable(32) %__x, ptr noundef nonnull align 8 dereferenceable(32) %__y) #0 comdat {
entry:
  %__x.addr = alloca ptr, align 8
  %__y.addr = alloca ptr, align 8
  store ptr %__x, ptr %__x.addr, align 8
  store ptr %__y, ptr %__y.addr, align 8
  %call = call noundef i64 @_ZNSt15_Deque_iteratorIN6hermes2vm11WeakRefSlotERS2_PS2_E14_S_buffer_sizeEv() #14
  %0 = load ptr, ptr %__x.addr, align 8
  %_M_node = getelementptr inbounds %"struct.std::_Deque_iterator", ptr %0, i32 0, i32 3
  %1 = load ptr, ptr %_M_node, align 8
  %2 = load ptr, ptr %__y.addr, align 8
  %_M_node1 = getelementptr inbounds %"struct.std::_Deque_iterator", ptr %2, i32 0, i32 3
  %3 = load ptr, ptr %_M_node1, align 8
  %sub.ptr.lhs.cast = ptrtoint ptr %1 to i64
  %sub.ptr.rhs.cast = ptrtoint ptr %3 to i64
  %sub.ptr.sub = sub i64 %sub.ptr.lhs.cast, %sub.ptr.rhs.cast
  %sub.ptr.div = sdiv exact i64 %sub.ptr.sub, 8
  %4 = load ptr, ptr %__x.addr, align 8
  %_M_node2 = getelementptr inbounds %"struct.std::_Deque_iterator", ptr %4, i32 0, i32 3
  %5 = load ptr, ptr %_M_node2, align 8
  %tobool = icmp ne ptr %5, null
  %conv = zext i1 %tobool to i64
  %sub = sub nsw i64 %sub.ptr.div, %conv
  %mul = mul nsw i64 %call, %sub
  %6 = load ptr, ptr %__x.addr, align 8
  %_M_cur = getelementptr inbounds %"struct.std::_Deque_iterator", ptr %6, i32 0, i32 0
  %7 = load ptr, ptr %_M_cur, align 8
  %8 = load ptr, ptr %__x.addr, align 8
  %_M_first = getelementptr inbounds %"struct.std::_Deque_iterator", ptr %8, i32 0, i32 1
  %9 = load ptr, ptr %_M_first, align 8
  %sub.ptr.lhs.cast3 = ptrtoint ptr %7 to i64
  %sub.ptr.rhs.cast4 = ptrtoint ptr %9 to i64
  %sub.ptr.sub5 = sub i64 %sub.ptr.lhs.cast3, %sub.ptr.rhs.cast4
  %sub.ptr.div6 = sdiv exact i64 %sub.ptr.sub5, 16
  %add = add nsw i64 %mul, %sub.ptr.div6
  %10 = load ptr, ptr %__y.addr, align 8
  %_M_last = getelementptr inbounds %"struct.std::_Deque_iterator", ptr %10, i32 0, i32 2
  %11 = load ptr, ptr %_M_last, align 8
  %12 = load ptr, ptr %__y.addr, align 8
  %_M_cur7 = getelementptr inbounds %"struct.std::_Deque_iterator", ptr %12, i32 0, i32 0
  %13 = load ptr, ptr %_M_cur7, align 8
  %sub.ptr.lhs.cast8 = ptrtoint ptr %11 to i64
  %sub.ptr.rhs.cast9 = ptrtoint ptr %13 to i64
  %sub.ptr.sub10 = sub i64 %sub.ptr.lhs.cast8, %sub.ptr.rhs.cast9
  %sub.ptr.div11 = sdiv exact i64 %sub.ptr.sub10, 16
  %add12 = add nsw i64 %add, %sub.ptr.div11
  ret i64 %add12
}

; Function Attrs: mustprogress nounwind uwtable
define linkonce_odr hidden noundef i64 @_ZNKSt5dequeIN6hermes2vm11WeakRefSlotESaIS2_EE4sizeEv(ptr noundef nonnull align 8 dereferenceable(80) %this) #0 comdat align 2 {
entry:
  %this.addr = alloca ptr, align 8
  store ptr %this, ptr %this.addr, align 8
  %this1 = load ptr, ptr %this.addr, align 8
  %_M_impl = getelementptr inbounds %"class.std::_Deque_base", ptr %this1, i32 0, i32 0
  %_M_finish = getelementptr inbounds %"struct.std::_Deque_base<hermes::vm::WeakRefSlot, std::allocator<hermes::vm::WeakRefSlot>>::_Deque_impl_data", ptr %_M_impl, i32 0, i32 3
  %_M_impl2 = getelementptr inbounds %"class.std::_Deque_base", ptr %this1, i32 0, i32 0
  %_M_start = getelementptr inbounds %"struct.std::_Deque_base<hermes::vm::WeakRefSlot, std::allocator<hermes::vm::WeakRefSlot>>::_Deque_impl_data", ptr %_M_impl2, i32 0, i32 2
  %call = call noundef i64 @_ZStmiRKSt15_Deque_iteratorIN6hermes2vm11WeakRefSlotERS2_PS2_ES7_(ptr noundef nonnull align 8 dereferenceable(32) %_M_finish, ptr noundef nonnull align 8 dereferenceable(32) %_M_start) #14
  ret i64 %call
}

; Function Attrs: mustprogress nounwind uwtable
define hidden void @_ZN6hermes2vm6GCBase25getHeapInfoWithMallocSizeERNS1_8HeapInfoE(ptr noundef nonnull align 8 dereferenceable(741) %this, ptr noundef nonnull align 8 dereferenceable(384) %info) unnamed_addr #0 align 2 {
entry:
  %this.addr = alloca ptr, align 8
  %info.addr = alloca ptr, align 8
  store ptr %this, ptr %this.addr, align 8
  store ptr %info, ptr %info.addr, align 8
  %this1 = load ptr, ptr %this.addr, align 8
  %weakSlots_ = getelementptr inbounds %"class.hermes::vm::GCBase", ptr %this1, i32 0, i32 24
  %call = call noundef i64 @_ZNKSt5dequeIN6hermes2vm11WeakRefSlotESaIS2_EE4sizeEv(ptr noundef nonnull align 8 dereferenceable(80) %weakSlots_) #14
  %mul = mul i64 %call, 16
  %conv = trunc i64 %mul to i32
  %0 = load ptr, ptr %info.addr, align 8
  %mallocSizeEstimate = getelementptr inbounds %"struct.hermes::vm::GCBase::HeapInfo", ptr %0, i32 0, i32 4
  store i32 %conv, ptr %mallocSizeEstimate, align 8
  ret void
}