; Function Attrs: mustprogress nofree norecurse nosync nounwind willreturn memory(argmem: readwrite) uwtable
define hidden void @_ZN6hermes2vm6GCBase25getHeapInfoWithMallocSizeERNS1_8HeapInfoE(ptr nocapture noundef nonnull readonly align 8 dereferenceable(741) %this, ptr nocapture noundef nonnull writeonly align 8 dereferenceable(384) %info) unnamed_addr #4 align 2 {
entry:
  %_M_finish.i = getelementptr inbounds i8, ptr %this, i64 408
  %_M_start.i = getelementptr inbounds i8, ptr %this, i64 376
  %_M_node.i.i = getelementptr inbounds i8, ptr %this, i64 432
  %0 = load ptr, ptr %_M_node.i.i, align 8
  %_M_node1.i.i = getelementptr inbounds i8, ptr %this, i64 400
  %1 = load ptr, ptr %_M_node1.i.i, align 8
  %sub.ptr.lhs.cast.i.i = ptrtoint ptr %0 to i64
  %sub.ptr.rhs.cast.i.i = ptrtoint ptr %1 to i64
  %sub.ptr.sub.i.i = sub i64 %sub.ptr.lhs.cast.i.i, %sub.ptr.rhs.cast.i.i
  %sub.ptr.div.i.i = ashr exact i64 %sub.ptr.sub.i.i, 3
  %tobool.i.i = icmp ne ptr %0, null
  %conv.neg.i.i = sext i1 %tobool.i.i to i64
  %sub.i.i = add nsw i64 %sub.ptr.div.i.i, %conv.neg.i.i
  %mul.i.i = shl nsw i64 %sub.i.i, 5
  %2 = load ptr, ptr %_M_finish.i, align 8
  %_M_first.i.i = getelementptr inbounds i8, ptr %this, i64 416
  %3 = load ptr, ptr %_M_first.i.i, align 8
  %sub.ptr.lhs.cast3.i.i = ptrtoint ptr %2 to i64
  %sub.ptr.rhs.cast4.i.i = ptrtoint ptr %3 to i64
  %sub.ptr.sub5.i.i = sub i64 %sub.ptr.lhs.cast3.i.i, %sub.ptr.rhs.cast4.i.i
  %sub.ptr.div6.i.i = lshr exact i64 %sub.ptr.sub5.i.i, 4
  %add.i.i = add i64 %mul.i.i, %sub.ptr.div6.i.i
  %_M_last.i.i = getelementptr inbounds i8, ptr %this, i64 392
  %4 = load ptr, ptr %_M_last.i.i, align 8
  %5 = load ptr, ptr %_M_start.i, align 8
  %sub.ptr.lhs.cast8.i.i = ptrtoint ptr %4 to i64
  %sub.ptr.rhs.cast9.i.i = ptrtoint ptr %5 to i64
  %sub.ptr.sub10.i.i = sub i64 %sub.ptr.lhs.cast8.i.i, %sub.ptr.rhs.cast9.i.i
  %sub.ptr.div11.i.i = lshr exact i64 %sub.ptr.sub10.i.i, 4
  %add12.i.i = add i64 %add.i.i, %sub.ptr.div11.i.i
  %call.tr = trunc i64 %add12.i.i to i32
  %conv = shl i32 %call.tr, 4
  %mallocSizeEstimate = getelementptr inbounds i8, ptr %info, i64 32
  store i32 %conv, ptr %mallocSizeEstimate, align 8
  ret void
}